ccopy_reg
_reconstructor
p0
(csklearn.pipeline
Pipeline
p1
c__builtin__
object
p2
Ntp3
Rp4
(dp5
S'_sklearn_version'
p6
S'0.18'
p7
sS'steps'
p8
(lp9
(S'preparer'
p10
g0
(csklearn.pipeline
FeatureUnion
p11
g2
Ntp12
Rp13
(dp14
S'transformer_list'
p15
(lp16
(S'scaler'
p17
g0
(csklearn.preprocessing.data
StandardScaler
p18
g2
Ntp19
Rp20
(dp21
S'copy'
p22
I01
sg6
g7
sS'with_mean'
p23
I01
sS'with_std'
p24
I01
sbtp25
asS'n_jobs'
p26
I1
sS'transformer_weights'
p27
Nsg6
g7
sbtp28
a(S'featurer'
p29
g0
(g11
g2
Ntp30
Rp31
(dp32
g15
(lp33
(S'pca'
p34
g0
(csklearn.decomposition.pca
PCA
p35
g2
Ntp36
Rp37
(dp38
S'svd_solver'
p39
S'auto'
p40
sS'iterated_power'
p41
g40
sS'random_state'
p42
Nsg6
g7
sS'whiten'
p43
I00
sS'tol'
p44
F0.0
sg22
I01
sS'n_components'
p45
I2
sbtp46
a(S'extraTC'
p47
g0
(csklearn.ensemble.forest
ExtraTreesClassifier
p48
g2
Ntp49
Rp50
(dp51
S'warm_start'
p52
I00
sS'base_estimator'
p53
g0
(csklearn.tree.tree
ExtraTreeClassifier
p54
g2
Ntp55
Rp56
(dp57
S'presort'
p58
I00
sS'splitter'
p59
S'random'
p60
sS'tree_'
p61
NsS'n_features_'
p62
NsS'n_outputs_'
p63
NsS'n_classes_'
p64
NsS'min_impurity_split'
p65
F1e-07
sS'classes_'
p66
NsS'max_features_'
p67
NsS'min_samples_leaf'
p68
I1
sS'min_samples_split'
p69
I2
sg42
NsS'criterion'
p70
S'gini'
p71
sS'min_weight_fraction_leaf'
p72
F0.0
sS'max_leaf_nodes'
p73
NsS'max_features'
p74
g40
sg6
g7
sS'max_depth'
p75
NsS'class_weight'
p76
NsbsS'estimators_'
p77
(lp78
sg26
I1
sS'verbose'
p79
I0
sg73
NsS'bootstrap'
p80
I00
sS'oob_score'
p81
I00
sg68
I1
sS'n_estimators'
p82
I10
sg69
I2
sg42
Nsg70
g71
sS'estimator_params'
p83
(S'criterion'
p84
S'max_depth'
p85
S'min_samples_split'
p86
S'min_samples_leaf'
p87
S'min_weight_fraction_leaf'
p88
S'max_features'
p89
S'max_leaf_nodes'
p90
S'min_impurity_split'
p91
S'random_state'
p92
tp93
sg65
F1e-07
sg74
g40
sg6
g7
sg72
F0.0
sg75
Nsg76
Nsbtp94
asg26
I1
sg27
Nsg6
g7
sbtp95
a(S'ExtraTreesClassifier'
p96
g0
(g48
g2
Ntp97
Rp98
(dp99
g52
I00
sg53
g0
(g54
g2
Ntp100
Rp101
(dp102
g58
I00
sg59
g60
sg61
Nsg62
Nsg63
Nsg64
Nsg65
F1e-07
sg66
Nsg67
Nsg68
I1
sg69
I2
sg42
Nsg70
g71
sg72
F0.0
sg73
Nsg74
g40
sg6
g7
sg75
Nsg76
Nsbsg77
(lp103
sg26
I1
sg79
I0
sg73
Nsg80
I00
sg81
I00
sg68
I1
sg82
I10
sg69
I2
sg42
Nsg70
g71
sg83
g93
sg65
F1e-07
sg74
g40
sg6
g7
sg72
F0.0
sg75
Nsg76
Nsbtp104
asb.